target datalayout = "e-m:e-p270:32:32-p271:32:32-p272:64:64-i64:64-i128:128-f80:128-n8:16:32:64-S128"
target triple = "x86_64-pc-linux-gnu"

%struct.lean_object = type { i32, i32 }
%"struct.lean::mpz_object" = type { %struct.lean_object, %"class.lean::mpz" }
%"class.lean::mpz" = type { [1 x %struct.__mpz_struct] }
%struct.__mpz_struct = type { i32, i32, ptr }

; Function Attrs: inlinehint mustprogress nounwind uwtable
define linkonce_odr hidden noundef ptr @_ZN4lean6to_mpzEP11lean_object(ptr noundef %0) #3 comdat {
  %2 = alloca ptr, align 8
  store ptr %0, ptr %2, align 8, !tbaa !3
  %3 = load ptr, ptr %2, align 8, !tbaa !3
  ret ptr %3
}

; Function Attrs: inlinehint mustprogress nounwind uwtable
define internal noundef i32 @_ZL14lean_ptr_otherP11lean_object(ptr noundef %0) #3 {
  %2 = alloca ptr, align 8
  store ptr %0, ptr %2, align 8, !tbaa !3
  %3 = load ptr, ptr %2, align 8, !tbaa !3
  %4 = getelementptr inbounds nuw %struct.lean_object, ptr %3, i32 0, i32 1
  %5 = load i32, ptr %4, align 4
  %6 = lshr i32 %5, 16
  %7 = and i32 %6, 255
  ret i32 %7
}

; Function Attrs: inlinehint mustprogress nounwind uwtable
define linkonce_odr hidden noundef i64 @_ZN4lean4hashEmm(i64 noundef %0, i64 noundef %1) #3 comdat {
  %3 = alloca i64, align 8
  %4 = alloca i64, align 8
  %5 = alloca i64, align 8
  %6 = alloca i64, align 8
  store i64 %0, ptr %3, align 8, !tbaa !7
  store i64 %1, ptr %4, align 8, !tbaa !7
  call void @llvm.lifetime.start.p0(i64 8, ptr %5) #17
  store i64 -4132994306676758123, ptr %5, align 8, !tbaa !7
  call void @llvm.lifetime.start.p0(i64 8, ptr %6) #17
  store i64 47, ptr %6, align 8, !tbaa !7
  %7 = load i64, ptr %5, align 8, !tbaa !7
  %8 = load i64, ptr %4, align 8, !tbaa !7
  %9 = mul i64 %8, %7
  store i64 %9, ptr %4, align 8, !tbaa !7
  %10 = load i64, ptr %4, align 8, !tbaa !7
  %11 = load i64, ptr %6, align 8, !tbaa !7
  %12 = lshr i64 %10, %11
  %13 = load i64, ptr %4, align 8, !tbaa !7
  %14 = xor i64 %13, %12
  store i64 %14, ptr %4, align 8, !tbaa !7
  %15 = load i64, ptr %5, align 8, !tbaa !7
  %16 = load i64, ptr %4, align 8, !tbaa !7
  %17 = xor i64 %16, %15
  store i64 %17, ptr %4, align 8, !tbaa !7
  %18 = load i64, ptr %4, align 8, !tbaa !7
  %19 = load i64, ptr %3, align 8, !tbaa !7
  %20 = xor i64 %19, %18
  store i64 %20, ptr %3, align 8, !tbaa !7
  %21 = load i64, ptr %5, align 8, !tbaa !7
  %22 = load i64, ptr %3, align 8, !tbaa !7
  %23 = mul i64 %22, %21
  store i64 %23, ptr %3, align 8, !tbaa !7
  %24 = load i64, ptr %3, align 8, !tbaa !7
  call void @llvm.lifetime.end.p0(i64 8, ptr %6) #17
  call void @llvm.lifetime.end.p0(i64 8, ptr %5) #17
  ret i64 %24
}

; Function Attrs: mustprogress nounwind uwtable
define linkonce_odr hidden noundef i32 @_ZNK4lean3mpz4hashEv(ptr noundef nonnull align 8 dereferenceable(16) %0) #6 comdat align 2 {
  %2 = alloca ptr, align 8
  store ptr %0, ptr %2, align 8, !tbaa !10
  %3 = load ptr, ptr %2, align 8
  %4 = getelementptr inbounds nuw %"class.lean::mpz", ptr %3, i32 0, i32 0
  %5 = getelementptr inbounds [1 x %struct.__mpz_struct], ptr %4, i64 0, i64 0
  %6 = call i64 @__gmpz_get_si(ptr noundef %5) #18
  %7 = trunc i64 %6 to i32
  ret i32 %7
}

; Function Attrs: inlinehint mustprogress uwtable
define linkonce_odr hidden noundef nonnull align 8 dereferenceable(16) ptr @_ZN4lean9mpz_valueEP11lean_object(ptr noundef %0) #4 comdat {
  %2 = alloca ptr, align 8
  store ptr %0, ptr %2, align 8, !tbaa !3
  %3 = load ptr, ptr %2, align 8, !tbaa !3
  %4 = call noundef ptr @_ZN4lean6to_mpzEP11lean_object(ptr noundef %3)
  %5 = getelementptr inbounds nuw %"struct.lean::mpz_object", ptr %4, i32 0, i32 1
  ret ptr %5
}

; Function Attrs: inlinehint mustprogress nounwind uwtable
define internal noundef zeroext i8 @_ZL12lean_ptr_tagP11lean_object(ptr noundef %0) #3 {
  %2 = alloca ptr, align 8
  store ptr %0, ptr %2, align 8, !tbaa !3
  %3 = load ptr, ptr %2, align 8, !tbaa !3
  %4 = getelementptr inbounds nuw %struct.lean_object, ptr %3, i32 0, i32 1
  %5 = load i32, ptr %4, align 4
  %6 = lshr i32 %5, 24
  %7 = trunc i32 %6 to i8
  ret i8 %7
}

; Function Attrs: mustprogress uwtable
define i64 @lean_sharecommon_hash(ptr noundef %0) #0 {
  %2 = alloca i64, align 8
  %3 = alloca ptr, align 8
  %4 = alloca i64, align 8
  %5 = alloca i64, align 8
  %6 = alloca i8, align 1
  %7 = alloca i32, align 4
  %8 = alloca i32, align 4
  store ptr %0, ptr %3, align 8, !tbaa !3
  call void @llvm.lifetime.start.p0(i64 8, ptr %4) #17
  %9 = load ptr, ptr %3, align 8, !tbaa !3
  %10 = call i64 @lean_object_data_byte_size(ptr noundef %9)
  store i64 %10, ptr %4, align 8, !tbaa !7
  call void @llvm.lifetime.start.p0(i64 8, ptr %5) #17
  store i64 8, ptr %5, align 8, !tbaa !7
  call void @llvm.lifetime.start.p0(i64 1, ptr %6) #17
  %11 = load ptr, ptr %3, align 8, !tbaa !3
  %12 = call noundef zeroext i8 @_ZL12lean_ptr_tagP11lean_object(ptr noundef %11)
  store i8 %12, ptr %6, align 1, !tbaa !9
  %13 = load i8, ptr %6, align 1, !tbaa !9
  %14 = zext i8 %13 to i32
  %15 = icmp eq i32 %14, 250
  br i1 %15, label %16, label %24

16:                                               ; preds = %1
  %17 = load i8, ptr %6, align 1, !tbaa !9
  %18 = zext i8 %17 to i64
  %19 = load ptr, ptr %3, align 8, !tbaa !3
  %20 = call noundef nonnull align 8 dereferenceable(16) ptr @_ZN4lean9mpz_valueEP11lean_object(ptr noundef %19)
  %21 = call noundef i32 @_ZNK4lean3mpz4hashEv(ptr noundef nonnull align 8 dereferenceable(16) %20)
  %22 = zext i32 %21 to i64
  %23 = call noundef i64 @_ZN4lean4hashEmm(i64 noundef %18, i64 noundef %22)
  store i64 %23, ptr %2, align 8
  store i32 1, ptr %7, align 4
  br label %41

24:                                               ; preds = %1
  call void @llvm.lifetime.start.p0(i64 4, ptr %8) #17
  %25 = load i8, ptr %6, align 1, !tbaa !9
  %26 = zext i8 %25 to i64
  %27 = load ptr, ptr %3, align 8, !tbaa !3
  %28 = call noundef i32 @_ZL14lean_ptr_otherP11lean_object(ptr noundef %27)
  %29 = zext i32 %28 to i64
  %30 = call noundef i64 @_ZN4lean4hashEmm(i64 noundef %26, i64 noundef %29)
  %31 = trunc i64 %30 to i32
  store i32 %31, ptr %8, align 4, !tbaa !12
  %32 = load i64, ptr %4, align 8, !tbaa !7
  %33 = load i64, ptr %5, align 8, !tbaa !7
  %34 = sub i64 %32, %33
  %35 = load ptr, ptr %3, align 8, !tbaa !3
  %36 = load i64, ptr %5, align 8, !tbaa !7
  %37 = getelementptr inbounds nuw i8, ptr %35, i64 %36
  %38 = load i32, ptr %8, align 4, !tbaa !12
  %39 = zext i32 %38 to i64
  %40 = call noundef i64 @_ZN4lean8hash_strEmPKhm(i64 noundef %34, ptr noundef %37, i64 noundef %39)
  store i64 %40, ptr %2, align 8
  store i32 1, ptr %7, align 4
  call void @llvm.lifetime.end.p0(i64 4, ptr %8) #17
  br label %41

41:                                               ; preds = %24, %16
  call void @llvm.lifetime.end.p0(i64 1, ptr %6) #17
  call void @llvm.lifetime.end.p0(i64 8, ptr %5) #17
  call void @llvm.lifetime.end.p0(i64 8, ptr %4) #17
  %42 = load i64, ptr %2, align 8
  ret i64 %42
}