; Function Attrs: mustprogress uwtable
define i64 @lean_sharecommon_hash(ptr noundef %0) local_unnamed_addr #0 {
  %2 = tail call i64 @lean_object_data_byte_size(ptr noundef %0)
  %3 = getelementptr i8, ptr %0, i64 4
  %.val = load i32, ptr %3, align 4
  %4 = lshr i32 %.val, 24
  %5 = icmp eq i32 %4, 250
  br i1 %5, label %6, label %15

6:                                                ; preds = %1
  %7 = getelementptr inbounds nuw i8, ptr %0, i64 8
  %8 = tail call i64 @__gmpz_get_si(ptr noundef nonnull align 8 dereferenceable(16) %7) #19
  %9 = and i64 %8, 4294967295
  %10 = mul i64 %9, -4132994306676758123
  %11 = lshr i64 %10, 47
  %12 = xor i64 %10, %11
  %13 = xor i64 %12, -4132994306676758161
  %14 = mul i64 %13, -4132994306676758123
  br label %30

15:                                               ; preds = %1
  %16 = lshr i32 %.val, 16
  %17 = and i32 %16, 255
  %18 = zext nneg i32 %17 to i64
  %19 = mul i64 %18, -4132994306676758123
  %20 = lshr i64 %19, 47
  %21 = xor i32 %4, 1540483477
  %22 = zext nneg i32 %21 to i64
  %23 = xor i64 %20, %22
  %24 = xor i64 %23, %19
  %25 = mul i64 %24, 1540483477
  %26 = add i64 %2, -8
  %27 = getelementptr inbounds nuw i8, ptr %0, i64 8
  %28 = and i64 %25, 4294967295
  %29 = tail call noundef i64 @_ZN4lean8hash_strEmPKhm(i64 noundef %26, ptr noundef nonnull %27, i64 noundef %28)
  br label %30

30:                                               ; preds = %15, %6
  %.0 = phi i64 [ %14, %6 ], [ %29, %15 ]
  ret i64 %.0
}